target datalayout = "e-m:e-p270:32:32-p271:32:32-p272:64:64-i64:64-i128:128-f80:128-n8:16:32:64-S128"
target triple = "x86_64-pc-linux-gnu"

%struct.Cec_ParSmf_t_ = type { i32, i32, i32, i32, i32, i32, i32, i32, i32, i32 }

; Function Attrs: nounwind uwtable
define void @Cec_ManSmfSetDefaultParams(ptr noundef %0) #0 {
  %2 = alloca ptr, align 8
  store ptr %0, ptr %2, align 8, !tbaa !33
  %3 = load ptr, ptr %2, align 8, !tbaa !33
  call void @llvm.memset.p0.i64(ptr align 4 %3, i8 0, i64 40, i1 false)
  %4 = load ptr, ptr %2, align 8, !tbaa !33
  %5 = getelementptr inbounds nuw %struct.Cec_ParSmf_t_, ptr %4, i32 0, i32 0
  store i32 31, ptr %5, align 4, !tbaa !35
  %6 = load ptr, ptr %2, align 8, !tbaa !33
  %7 = getelementptr inbounds nuw %struct.Cec_ParSmf_t_, ptr %6, i32 0, i32 1
  store i32 200, ptr %7, align 4, !tbaa !37
  %8 = load ptr, ptr %2, align 8, !tbaa !33
  %9 = getelementptr inbounds nuw %struct.Cec_ParSmf_t_, ptr %8, i32 0, i32 2
  store i32 200, ptr %9, align 4, !tbaa !38
  %10 = load ptr, ptr %2, align 8, !tbaa !33
  %11 = getelementptr inbounds nuw %struct.Cec_ParSmf_t_, ptr %10, i32 0, i32 3
  store i32 3, ptr %11, align 4, !tbaa !39
  %12 = load ptr, ptr %2, align 8, !tbaa !33
  %13 = getelementptr inbounds nuw %struct.Cec_ParSmf_t_, ptr %12, i32 0, i32 4
  store i32 0, ptr %13, align 4, !tbaa !40
  %14 = load ptr, ptr %2, align 8, !tbaa !33
  %15 = getelementptr inbounds nuw %struct.Cec_ParSmf_t_, ptr %14, i32 0, i32 5
  store i32 100, ptr %15, align 4, !tbaa !41
  %16 = load ptr, ptr %2, align 8, !tbaa !33
  %17 = getelementptr inbounds nuw %struct.Cec_ParSmf_t_, ptr %16, i32 0, i32 6
  store i32 0, ptr %17, align 4, !tbaa !42
  %18 = load ptr, ptr %2, align 8, !tbaa !33
  %19 = getelementptr inbounds nuw %struct.Cec_ParSmf_t_, ptr %18, i32 0, i32 7
  store i32 0, ptr %19, align 4, !tbaa !43
  %20 = load ptr, ptr %2, align 8, !tbaa !33
  %21 = getelementptr inbounds nuw %struct.Cec_ParSmf_t_, ptr %20, i32 0, i32 8
  store i32 0, ptr %21, align 4, !tbaa !44
  %22 = load ptr, ptr %2, align 8, !tbaa !33
  %23 = getelementptr inbounds nuw %struct.Cec_ParSmf_t_, ptr %22, i32 0, i32 9
  store i32 0, ptr %23, align 4, !tbaa !45
  ret void
}