; Function Attrs: mustprogress nofree norecurse nosync nounwind willreturn memory(argmem: write) uwtable
define void @Cec_ManSmfSetDefaultParams(ptr noundef writeonly captures(none) initializes((0, 40)) %0) local_unnamed_addr #0 {
  store i32 31, ptr %0, align 4, !tbaa !24
  %2 = getelementptr inbounds nuw i8, ptr %0, i64 4
  store i32 200, ptr %2, align 4, !tbaa !26
  %3 = getelementptr inbounds nuw i8, ptr %0, i64 8
  store i32 200, ptr %3, align 4, !tbaa !27
  %4 = getelementptr inbounds nuw i8, ptr %0, i64 12
  store i32 3, ptr %4, align 4, !tbaa !28
  %5 = getelementptr inbounds nuw i8, ptr %0, i64 16
  store i32 0, ptr %5, align 4, !tbaa !29
  %6 = getelementptr inbounds nuw i8, ptr %0, i64 20
  store i32 100, ptr %6, align 4, !tbaa !30
  %7 = getelementptr inbounds nuw i8, ptr %0, i64 24
  tail call void @llvm.memset.p0.i64(ptr noundef nonnull align 4 dereferenceable(16) %7, i8 0, i64 16, i1 false)
  ret void
}